target datalayout = "e-m:e-p270:32:32-p271:32:32-p272:64:64-i64:64-i128:128-f80:128-n8:16:32:64-S128"
target triple = "x86_64-pc-linux-gnu"

@stderr = external global ptr, align 8
@.str.14 = private unnamed_addr constant [32 x i8] c"\0A\0A -> Arithmetic coding error: \00", align 1
@.str.15 = private unnamed_addr constant [25 x i8] c"\0A Execution terminated!\0A\00", align 1

; Function Attrs: mustprogress noreturn uwtable
define internal void @_ZN5o3dgcL8AC_ErrorEPKc(ptr noundef %0) #5 {
  %2 = alloca ptr, align 8
  store ptr %0, ptr %2, align 8
  %3 = load ptr, ptr @stderr, align 8
  %4 = call i32 (ptr, ptr, ...) @fprintf(ptr noundef %3, ptr noundef @.str.14) #12
  %5 = load ptr, ptr %2, align 8
  %6 = load ptr, ptr @stderr, align 8
  %7 = call i32 @fputs(ptr noundef %5, ptr noundef %6)
  %8 = load ptr, ptr @stderr, align 8
  %9 = call i32 @fputs(ptr noundef @.str.15, ptr noundef %8)
  %10 = call i32 @getchar()
  call void @exit(i32 noundef 1) #16
  unreachable
}