; Function Attrs: cold mustprogress noreturn uwtable
define internal fastcc void @_ZN5o3dgcL8AC_ErrorEPKc(ptr noundef readonly captures(none) %0) unnamed_addr #8 {
  %2 = load ptr, ptr @stderr, align 8
  %3 = tail call i64 @fwrite(ptr nonnull @.str.14, i64 31, i64 1, ptr %2) #19
  %4 = load ptr, ptr @stderr, align 8
  %5 = tail call i32 @fputs(ptr noundef %0, ptr noundef %4) #19
  %6 = load ptr, ptr @stderr, align 8
  %7 = tail call i64 @fwrite(ptr nonnull @.str.15, i64 24, i64 1, ptr %6) #19
  %8 = tail call i32 @getchar()
  tail call void @exit(i32 noundef 1) #20
  unreachable
}